; Function Attrs: nounwind sspstrong uwtable
define dso_local i64 @virtio_bus_get_vdev_config_len(ptr noundef readonly captures(none) %bus) local_unnamed_addr #0 {
entry:
  %0 = getelementptr i8, ptr %bus, i64 80
  %bus.val = load ptr, ptr %0, align 8
  %tobool.not.i = icmp eq ptr %bus.val, null
  br i1 %tobool.not.i, label %if.else, label %virtio_bus_get_device.exit

virtio_bus_get_device.exit:                       ; preds = %entry
  %child.i = getelementptr inbounds nuw i8, ptr %bus.val, i64 16
  %1 = load ptr, ptr %child.i, align 8
  %cmp.not = icmp eq ptr %1, null
  br i1 %cmp.not, label %if.else, label %if.end

if.else:                                          ; preds = %entry, %virtio_bus_get_device.exit
  tail call void @__assert_fail(ptr noundef nonnull @.str.3, ptr noundef nonnull @.str.1, i32 noundef 141, ptr noundef nonnull @__PRETTY_FUNCTION__.virtio_bus_get_vdev_config_len) #6
  unreachable

if.end:                                           ; preds = %virtio_bus_get_device.exit
  %config_len = getelementptr inbounds nuw i8, ptr %1, i64 200
  %2 = load i64, ptr %config_len, align 8
  ret i64 %2
}